; Function Attrs: mustprogress nofree norecurse nosync nounwind willreturn memory(argmem: readwrite) uwtable
define i64 @wolfSSL_CTX_clear_options(ptr noundef captures(address_is_null) %0, i64 noundef %1) local_unnamed_addr #4 {
  %3 = icmp eq ptr %0, null
  br i1 %3, label %9, label %4

4:                                                ; preds = %2
  %5 = xor i64 %1, -1
  %6 = getelementptr inbounds nuw i8, ptr %0, i64 184
  %7 = load i64, ptr %6, align 8, !tbaa !246
  %8 = and i64 %7, %5
  store i64 %8, ptr %6, align 8, !tbaa !246
  br label %9

9:                                                ; preds = %2, %4
  %.0 = phi i64 [ %8, %4 ], [ -173, %2 ]
  ret i64 %.0
}